; Function Attrs: mustprogress uwtable
define void @_ZNK4cvc56parser17DefineSortCommand8toStreamERSo(ptr noundef nonnull align 8 dereferenceable(96) %0, ptr noundef nonnull align 8 dereferenceable(8) %1) unnamed_addr #3 align 2 personality ptr @__gxx_personality_v0 {
  %3 = alloca %"class.std::vector.253", align 8
  %4 = alloca %"class.cvc5::internal::TypeNode", align 8
  %5 = tail call noundef ptr @_ZN4cvc58internal7Printer10getPrinterERSo(ptr noundef nonnull align 8 dereferenceable(8) %1)
  call void @llvm.lifetime.start.p0(i64 24, ptr nonnull %3) #33
  %6 = getelementptr inbounds nuw i8, ptr %0, i64 48
  call void @_ZN4cvc54Sort21sortVectorToTypeNodesERKSt6vectorIS0_SaIS0_EE(ptr dead_on_unwind nonnull writable sret(%"class.std::vector.253") align 8 %3, ptr noundef nonnull align 8 dereferenceable(24) %6)
  %7 = getelementptr inbounds nuw i8, ptr %0, i64 72
  call void @llvm.experimental.noalias.scope.decl(metadata !261)
  %8 = invoke noundef nonnull align 8 dereferenceable(8) ptr @_ZNK4cvc54Sort11getTypeNodeEv(ptr noundef nonnull align 8 dereferenceable(24) %7)
          to label %.noexc unwind label %66

.noexc:                                           ; preds = %2
  %9 = load ptr, ptr %8, align 8, !tbaa !68, !noalias !261
  store ptr %9, ptr %4, align 8, !tbaa !68, !alias.scope !261
  %10 = load i64, ptr %9, align 8, !noalias !261
  %11 = lshr i64 %10, 40
  %12 = trunc nuw nsw i64 %11 to i32
  %13 = and i32 %12, 1048575
  %14 = icmp samesign ult i32 %13, 1048574
  br i1 %14, label %15, label %20, !prof !67

15:                                               ; preds = %.noexc
  %16 = add i64 %10, 1099511627776
  %17 = and i64 %16, 1152920405095219200
  %18 = and i64 %10, -1152920405095219201
  %19 = or disjoint i64 %17, %18
  store i64 %19, ptr %9, align 8, !noalias !261
  br label %_ZN4cvc56parser3Cmd14sortToTypeNodeERKNS_4SortE.exit

20:                                               ; preds = %.noexc
  %21 = icmp eq i32 %13, 1048574
  br i1 %21, label %22, label %_ZN4cvc56parser3Cmd14sortToTypeNodeERKNS_4SortE.exit, !prof !32

22:                                               ; preds = %20
  %23 = or i64 %10, 1152920405095219200
  store i64 %23, ptr %9, align 8, !noalias !261
  invoke void @_ZN4cvc58internal4expr9NodeValue20markRefCountMaxedOutEv(ptr noundef nonnull align 8 dereferenceable(24) %9)
          to label %_ZN4cvc56parser3Cmd14sortToTypeNodeERKNS_4SortE.exit unwind label %66

_ZN4cvc56parser3Cmd14sortToTypeNodeERKNS_4SortE.exit: ; preds = %20, %15, %22
  %24 = getelementptr inbounds nuw i8, ptr %0, i64 16
  %25 = load ptr, ptr %5, align 8, !tbaa !6
  %26 = getelementptr inbounds nuw i8, ptr %25, i64 184
  %27 = load ptr, ptr %26, align 8
  invoke void %27(ptr noundef nonnull align 8 dereferenceable(8) %5, ptr noundef nonnull align 8 dereferenceable(8) %1, ptr noundef nonnull align 8 dereferenceable(32) %24, ptr noundef nonnull align 8 dereferenceable(24) %3, ptr noundef nonnull %4)
          to label %28 unwind label %68

28:                                               ; preds = %_ZN4cvc56parser3Cmd14sortToTypeNodeERKNS_4SortE.exit
  %29 = load ptr, ptr %4, align 8, !tbaa !68
  %30 = load i64, ptr %29, align 8
  %31 = and i64 %30, 1152920405095219200
  %.not.i.i = icmp eq i64 %31, 1152920405095219200
  br i1 %.not.i.i, label %_ZN4cvc58internal8TypeNodeD2Ev.exit, label %32, !prof !32

32:                                               ; preds = %28
  %33 = add i64 %30, 1152920405095219200
  %34 = and i64 %33, 1152920405095219200
  %35 = and i64 %30, -1152920405095219201
  %36 = or disjoint i64 %34, %35
  store i64 %36, ptr %29, align 8
  %37 = icmp eq i64 %34, 0
  br i1 %37, label %38, label %_ZN4cvc58internal8TypeNodeD2Ev.exit, !prof !32

38:                                               ; preds = %32
  invoke void @_ZN4cvc58internal4expr9NodeValue15markForDeletionEv(ptr noundef nonnull align 8 dereferenceable(24) %29)
          to label %_ZN4cvc58internal8TypeNodeD2Ev.exit unwind label %39

39:                                               ; preds = %38
  %40 = landingpad { ptr, i32 }
          catch ptr null
  %41 = extractvalue { ptr, i32 } %40, 0
  call void @__clang_call_terminate(ptr %41) #35
  unreachable

_ZN4cvc58internal8TypeNodeD2Ev.exit:              ; preds = %28, %32, %38
  %42 = load ptr, ptr %3, align 8, !tbaa !232
  %43 = getelementptr inbounds nuw i8, ptr %3, i64 8
  %44 = load ptr, ptr %43, align 8, !tbaa !234
  %.not4.i.i.i.i = icmp eq ptr %42, %44
  br i1 %.not4.i.i.i.i, label %_ZSt8_DestroyIPN4cvc58internal8TypeNodeES2_EvT_S4_RSaIT0_E.exit.i, label %.lr.ph.i.i.i.i

.lr.ph.i.i.i.i:                                   ; preds = %_ZN4cvc58internal8TypeNodeD2Ev.exit, %_ZSt8_DestroyIN4cvc58internal8TypeNodeEEvPT_.exit.i.i.i.i
  %.05.i.i.i.i = phi ptr [ %58, %_ZSt8_DestroyIN4cvc58internal8TypeNodeEEvPT_.exit.i.i.i.i ], [ %42, %_ZN4cvc58internal8TypeNodeD2Ev.exit ]
  %45 = load ptr, ptr %.05.i.i.i.i, align 8, !tbaa !68
  %46 = load i64, ptr %45, align 8
  %47 = and i64 %46, 1152920405095219200
  %.not.i.i.i.i.i.i.i = icmp eq i64 %47, 1152920405095219200
  br i1 %.not.i.i.i.i.i.i.i, label %_ZSt8_DestroyIN4cvc58internal8TypeNodeEEvPT_.exit.i.i.i.i, label %48, !prof !32

48:                                               ; preds = %.lr.ph.i.i.i.i
  %49 = add i64 %46, 1152920405095219200
  %50 = and i64 %49, 1152920405095219200
  %51 = and i64 %46, -1152920405095219201
  %52 = or disjoint i64 %50, %51
  store i64 %52, ptr %45, align 8
  %53 = icmp eq i64 %50, 0
  br i1 %53, label %54, label %_ZSt8_DestroyIN4cvc58internal8TypeNodeEEvPT_.exit.i.i.i.i, !prof !32

54:                                               ; preds = %48
  invoke void @_ZN4cvc58internal4expr9NodeValue15markForDeletionEv(ptr noundef nonnull align 8 dereferenceable(24) %45)
          to label %_ZSt8_DestroyIN4cvc58internal8TypeNodeEEvPT_.exit.i.i.i.i unwind label %55

55:                                               ; preds = %54
  %56 = landingpad { ptr, i32 }
          catch ptr null
  %57 = extractvalue { ptr, i32 } %56, 0
  call void @__clang_call_terminate(ptr %57) #35
  unreachable

_ZSt8_DestroyIN4cvc58internal8TypeNodeEEvPT_.exit.i.i.i.i: ; preds = %54, %48, %.lr.ph.i.i.i.i
  %58 = getelementptr inbounds nuw i8, ptr %.05.i.i.i.i, i64 8
  %.not.i.i.i.i = icmp eq ptr %58, %44
  br i1 %.not.i.i.i.i, label %_ZSt8_DestroyIPN4cvc58internal8TypeNodeES2_EvT_S4_RSaIT0_E.exitthread-pre-split.i, label %.lr.ph.i.i.i.i, !llvm.loop !235

_ZSt8_DestroyIPN4cvc58internal8TypeNodeES2_EvT_S4_RSaIT0_E.exitthread-pre-split.i: ; preds = %_ZSt8_DestroyIN4cvc58internal8TypeNodeEEvPT_.exit.i.i.i.i
  %.pr.i = load ptr, ptr %3, align 8, !tbaa !232
  br label %_ZSt8_DestroyIPN4cvc58internal8TypeNodeES2_EvT_S4_RSaIT0_E.exit.i

_ZSt8_DestroyIPN4cvc58internal8TypeNodeES2_EvT_S4_RSaIT0_E.exit.i: ; preds = %_ZSt8_DestroyIPN4cvc58internal8TypeNodeES2_EvT_S4_RSaIT0_E.exitthread-pre-split.i, %_ZN4cvc58internal8TypeNodeD2Ev.exit
  %59 = phi ptr [ %.pr.i, %_ZSt8_DestroyIPN4cvc58internal8TypeNodeES2_EvT_S4_RSaIT0_E.exitthread-pre-split.i ], [ %42, %_ZN4cvc58internal8TypeNodeD2Ev.exit ]
  %.not.i.i.i = icmp eq ptr %59, null
  br i1 %.not.i.i.i, label %_ZNSt6vectorIN4cvc58internal8TypeNodeESaIS2_EED2Ev.exit, label %60

60:                                               ; preds = %_ZSt8_DestroyIPN4cvc58internal8TypeNodeES2_EvT_S4_RSaIT0_E.exit.i
  %61 = getelementptr inbounds nuw i8, ptr %3, i64 16
  %62 = load ptr, ptr %61, align 8, !tbaa !236
  %63 = ptrtoint ptr %62 to i64
  %64 = ptrtoint ptr %59 to i64
  %65 = sub i64 %63, %64
  call void @_ZdlPvm(ptr noundef nonnull %59, i64 noundef %65) #34
  br label %_ZNSt6vectorIN4cvc58internal8TypeNodeESaIS2_EED2Ev.exit

_ZNSt6vectorIN4cvc58internal8TypeNodeESaIS2_EED2Ev.exit: ; preds = %_ZSt8_DestroyIPN4cvc58internal8TypeNodeES2_EvT_S4_RSaIT0_E.exit.i, %60
  call void @llvm.lifetime.end.p0(i64 24, ptr nonnull %3) #33
  ret void

66:                                               ; preds = %22, %2
  %67 = landingpad { ptr, i32 }
          cleanup
  br label %70

68:                                               ; preds = %_ZN4cvc56parser3Cmd14sortToTypeNodeERKNS_4SortE.exit
  %69 = landingpad { ptr, i32 }
          cleanup
  call void @_ZN4cvc58internal8TypeNodeD2Ev(ptr noundef nonnull align 8 dereferenceable(8) %4) #33
  br label %70

70:                                               ; preds = %68, %66
  %.pn = phi { ptr, i32 } [ %69, %68 ], [ %67, %66 ]
  call void @_ZNSt6vectorIN4cvc58internal8TypeNodeESaIS2_EED2Ev(ptr noundef nonnull align 8 dereferenceable(24) %3) #33
  call void @llvm.lifetime.end.p0(i64 24, ptr nonnull %3) #33
  resume { ptr, i32 } %.pn
}